; ModuleID = '25/996.cpp'
source_filename = "25/996.cpp"
target datalayout = "e-m:e-p270:32:32-p271:32:32-p272:64:64-i64:64-f80:128-n8:16:32:64-S128"
target triple = "x86_64-pc-linux-gnu"

%"class.std::ios_base::Init" = type { i8 }
%"class.std::basic_istream" = type { i32 (...)**, i64, %"class.std::basic_ios" }
%"class.std::basic_ios" = type { %"class.std::ios_base", %"class.std::basic_ostream"*, i8, i8, %"class.std::basic_streambuf"*, %"class.std::ctype"*, %"class.std::num_put"*, %"class.std::num_get"* }
%"class.std::ios_base" = type { i32 (...)**, i64, i64, i32, i32, i32, %"struct.std::ios_base::_Callback_list"*, %"struct.std::ios_base::_Words", [8 x %"struct.std::ios_base::_Words"], i32, %"struct.std::ios_base::_Words"*, %"class.std::locale" }
%"struct.std::ios_base::_Callback_list" = type { %"struct.std::ios_base::_Callback_list"*, void (i32, %"class.std::ios_base"*, i32)*, i32, i32 }
%"struct.std::ios_base::_Words" = type { i8*, i64 }
%"class.std::locale" = type { %"class.std::locale::_Impl"* }
%"class.std::locale::_Impl" = type { i32, %"class.std::locale::facet"**, i64, %"class.std::locale::facet"**, i8** }
%"class.std::locale::facet" = type <{ i32 (...)**, i32, [4 x i8] }>
%"class.std::basic_ostream" = type { i32 (...)**, %"class.std::basic_ios" }
%"class.std::basic_streambuf" = type { i32 (...)**, i8*, i8*, i8*, i8*, i8*, i8*, %"class.std::locale" }
%"class.std::ctype" = type <{ %"class.std::locale::facet.base", [4 x i8], %struct.__locale_struct*, i8, [7 x i8], i32*, i32*, i16*, i8, [256 x i8], [256 x i8], i8, [6 x i8] }>
%"class.std::locale::facet.base" = type <{ i32 (...)**, i32 }>
%struct.__locale_struct = type { [13 x %struct.__locale_data*], i16*, i32*, i32*, [13 x i8*] }
%struct.__locale_data = type opaque
%"class.std::num_put" = type { %"class.std::locale::facet.base", [4 x i8] }
%"class.std::num_get" = type { %"class.std::locale::facet.base", [4 x i8] }

@_ZStL8__ioinit = internal global %"class.std::ios_base::Init" zeroinitializer, align 1
@__dso_handle = external hidden global i8
@_ZSt3cin = external dso_local global %"class.std::basic_istream", align 8
@_ZSt4cout = external dso_local global %"class.std::basic_ostream", align 8
@.str = private unnamed_addr constant [2 x i8] c"1\00", align 1
@llvm.global_ctors = appending global [1 x { i32, void ()*, i8* }] [{ i32, void ()*, i8* } { i32 65535, void ()* @_GLOBAL__sub_I_996.cpp, i8* null }]

; Function Attrs: noinline uwtable
define internal void @__cxx_global_var_init() #0 section ".text.startup" {
  call void @_ZNSt8ios_base4InitC1Ev(%"class.std::ios_base::Init"* @_ZStL8__ioinit)
  %1 = call i32 @__cxa_atexit(void (i8*)* bitcast (void (%"class.std::ios_base::Init"*)* @_ZNSt8ios_base4InitD1Ev to void (i8*)*), i8* getelementptr inbounds (%"class.std::ios_base::Init", %"class.std::ios_base::Init"* @_ZStL8__ioinit, i32 0, i32 0), i8* @__dso_handle) #3
  ret void
}

declare dso_local void @_ZNSt8ios_base4InitC1Ev(%"class.std::ios_base::Init"*) unnamed_addr #1

; Function Attrs: nounwind
declare dso_local void @_ZNSt8ios_base4InitD1Ev(%"class.std::ios_base::Init"*) unnamed_addr #2

; Function Attrs: nounwind
declare dso_local i32 @__cxa_atexit(void (i8*)*, i8*, i8*) #3

; Function Attrs: noinline norecurse uwtable
define dso_local i32 @main() #4 {
  %1 = alloca i32, align 4
  %2 = alloca [10000 x i32], align 16
  %3 = alloca i32, align 4
  %4 = alloca i32, align 4
  %5 = alloca i32, align 4
  %6 = alloca i32, align 4
  %7 = alloca i32, align 4
  %8 = alloca i32, align 4
  %9 = alloca i32, align 4
  store i32 0, i32* %1, align 4
  %10 = bitcast [10000 x i32]* %2 to i8*
  call void @llvm.memset.p0i8.i64(i8* align 16 %10, i8 0, i64 40000, i1 false)
  %11 = bitcast i8* %10 to <{ i32, [9999 x i32] }>*
  %12 = getelementptr inbounds <{ i32, [9999 x i32] }>, <{ i32, [9999 x i32] }>* %11, i32 0, i32 0
  store i32 2, i32* %12, align 16
  store i32 0, i32* %3, align 4
  store i32 0, i32* %4, align 4
  store i32 0, i32* %5, align 4
  %13 = call dereferenceable(280) %"class.std::basic_istream"* @_ZNSirsERi(%"class.std::basic_istream"* @_ZSt3cin, i32* dereferenceable(4) %5)
  %14 = load i32, i32* %5, align 4
  %15 = icmp eq i32 %14, 0
  br i1 %15, label %16, label %18

16:                                               ; preds = %0
  %17 = call dereferenceable(272) %"class.std::basic_ostream"* @_ZStlsISt11char_traitsIcEERSt13basic_ostreamIcT_ES5_PKc(%"class.std::basic_ostream"* dereferenceable(272) @_ZSt4cout, i8* getelementptr inbounds ([2 x i8], [2 x i8]* @.str, i64 0, i64 0))
  br label %104

18:                                               ; preds = %0
  store i32 1, i32* %6, align 4
  br label %19

19:                                               ; preds = %68, %18
  %20 = load i32, i32* %6, align 4
  %21 = load i32, i32* %5, align 4
  %22 = icmp slt i32 %20, %21
  br i1 %22, label %23, label %71

23:                                               ; preds = %19
  store i32 1, i32* %7, align 4
  br label %24

24:                                               ; preds = %64, %23
  %25 = load i32, i32* %7, align 4
  %26 = icmp sle i32 %25, 10000
  br i1 %26, label %27, label %67

27:                                               ; preds = %24
  %28 = load i32, i32* %7, align 4
  %29 = sub nsw i32 %28, 1
  %30 = sext i32 %29 to i64
  %31 = getelementptr inbounds [10000 x i32], [10000 x i32]* %2, i64 0, i64 %30
  %32 = load i32, i32* %31, align 4
  %33 = load i32, i32* %7, align 4
  %34 = sub nsw i32 %33, 1
  %35 = sext i32 %34 to i64
  %36 = getelementptr inbounds [10000 x i32], [10000 x i32]* %2, i64 0, i64 %35
  %37 = load i32, i32* %36, align 4
  %38 = add nsw i32 %32, %37
  %39 = load i32, i32* %3, align 4
  %40 = add nsw i32 %38, %39
  %41 = load i32, i32* %7, align 4
  %42 = sub nsw i32 %41, 1
  %43 = sext i32 %42 to i64
  %44 = getelementptr inbounds [10000 x i32], [10000 x i32]* %2, i64 0, i64 %43
  store i32 %40, i32* %44, align 4
  %45 = load i32, i32* %7, align 4
  %46 = sub nsw i32 %45, 1
  %47 = sext i32 %46 to i64
  %48 = getelementptr inbounds [10000 x i32], [10000 x i32]* %2, i64 0, i64 %47
  %49 = load i32, i32* %48, align 4
  %50 = icmp sgt i32 %49, 9
  br i1 %50, label %51, label %62

51:                                               ; preds = %27
  store i32 1, i32* %3, align 4
  %52 = load i32, i32* %7, align 4
  %53 = sub nsw i32 %52, 1
  %54 = sext i32 %53 to i64
  %55 = getelementptr inbounds [10000 x i32], [10000 x i32]* %2, i64 0, i64 %54
  %56 = load i32, i32* %55, align 4
  %57 = sub nsw i32 %56, 10
  %58 = load i32, i32* %7, align 4
  %59 = sub nsw i32 %58, 1
  %60 = sext i32 %59 to i64
  %61 = getelementptr inbounds [10000 x i32], [10000 x i32]* %2, i64 0, i64 %60
  store i32 %57, i32* %61, align 4
  br label %63

62:                                               ; preds = %27
  store i32 0, i32* %3, align 4
  br label %63

63:                                               ; preds = %62, %51
  br label %64

64:                                               ; preds = %63
  %65 = load i32, i32* %7, align 4
  %66 = add nsw i32 %65, 1
  store i32 %66, i32* %7, align 4
  br label %24

67:                                               ; preds = %24
  br label %68

68:                                               ; preds = %67
  %69 = load i32, i32* %6, align 4
  %70 = add nsw i32 %69, 1
  store i32 %70, i32* %6, align 4
  br label %19

71:                                               ; preds = %19
  store i32 10000, i32* %8, align 4
  br label %72

72:                                               ; preds = %85, %71
  %73 = load i32, i32* %8, align 4
  %74 = icmp sgt i32 %73, 0
  br i1 %74, label %75, label %88

75:                                               ; preds = %72
  %76 = load i32, i32* %8, align 4
  %77 = sub nsw i32 %76, 1
  %78 = sext i32 %77 to i64
  %79 = getelementptr inbounds [10000 x i32], [10000 x i32]* %2, i64 0, i64 %78
  %80 = load i32, i32* %79, align 4
  %81 = icmp ne i32 %80, 0
  br i1 %81, label %82, label %84

82:                                               ; preds = %75
  %83 = load i32, i32* %8, align 4
  store i32 %83, i32* %4, align 4
  br label %88

84:                                               ; preds = %75
  br label %85

85:                                               ; preds = %84
  %86 = load i32, i32* %8, align 4
  %87 = add nsw i32 %86, -1
  store i32 %87, i32* %8, align 4
  br label %72

88:                                               ; preds = %82, %72
  %89 = load i32, i32* %4, align 4
  store i32 %89, i32* %9, align 4
  br label %90

90:                                               ; preds = %100, %88
  %91 = load i32, i32* %9, align 4
  %92 = icmp sgt i32 %91, 0
  br i1 %92, label %93, label %103

93:                                               ; preds = %90
  %94 = load i32, i32* %9, align 4
  %95 = sub nsw i32 %94, 1
  %96 = sext i32 %95 to i64
  %97 = getelementptr inbounds [10000 x i32], [10000 x i32]* %2, i64 0, i64 %96
  %98 = load i32, i32* %97, align 4
  %99 = call dereferenceable(272) %"class.std::basic_ostream"* @_ZNSolsEi(%"class.std::basic_ostream"* @_ZSt4cout, i32 %98)
  br label %100

100:                                              ; preds = %93
  %101 = load i32, i32* %9, align 4
  %102 = add nsw i32 %101, -1
  store i32 %102, i32* %9, align 4
  br label %90

103:                                              ; preds = %90
  br label %104

104:                                              ; preds = %103, %16
  ret i32 0
}

; Function Attrs: argmemonly nounwind willreturn
declare void @llvm.memset.p0i8.i64(i8* nocapture writeonly, i8, i64, i1 immarg) #5

declare dso_local dereferenceable(280) %"class.std::basic_istream"* @_ZNSirsERi(%"class.std::basic_istream"*, i32* dereferenceable(4)) #1

declare dso_local dereferenceable(272) %"class.std::basic_ostream"* @_ZStlsISt11char_traitsIcEERSt13basic_ostreamIcT_ES5_PKc(%"class.std::basic_ostream"* dereferenceable(272), i8*) #1

declare dso_local dereferenceable(272) %"class.std::basic_ostream"* @_ZNSolsEi(%"class.std::basic_ostream"*, i32) #1

; Function Attrs: noinline uwtable
define internal void @_GLOBAL__sub_I_996.cpp() #0 section ".text.startup" {
  call void @__cxx_global_var_init()
  ret void
}


!llvm.module.flags = !{!0}
!llvm.ident = !{!1}

!0 = !{i32 1, !"wchar_size", i32 4}
!1 = !{!"clang version 10.0.0-4ubuntu1 "}
