; ModuleID = 'source-C-CXX/24/996.cpp'
source_filename = "source-C-CXX/24/996.cpp"
target datalayout = "e-m:e-p270:32:32-p271:32:32-p272:64:64-i64:64-f80:128-n8:16:32:64-S128"
target triple = "x86_64-pc-linux-gnu"

%"class.std::ios_base::Init" = type { i8 }
%"class.std::basic_istream" = type { i32 (...)**, i64, %"class.std::basic_ios" }
%"class.std::basic_ios" = type { %"class.std::ios_base", %"class.std::basic_ostream"*, i8, i8, %"class.std::basic_streambuf"*, %"class.std::ctype"*, %"class.std::num_put"*, %"class.std::num_get"* }
%"class.std::ios_base" = type { i32 (...)**, i64, i64, i32, i32, i32, %"struct.std::ios_base::_Callback_list"*, %"struct.std::ios_base::_Words", [8 x %"struct.std::ios_base::_Words"], i32, %"struct.std::ios_base::_Words"*, %"class.std::locale" }
%"struct.std::ios_base::_Callback_list" = type { %"struct.std::ios_base::_Callback_list"*, void (i32, %"class.std::ios_base"*, i32)*, i32, i32 }
%"struct.std::ios_base::_Words" = type { i8*, i64 }
%"class.std::locale" = type { %"class.std::locale::_Impl"* }
%"class.std::locale::_Impl" = type { i32, %"class.std::locale::facet"**, i64, %"class.std::locale::facet"**, i8** }
%"class.std::locale::facet" = type <{ i32 (...)**, i32, [4 x i8] }>
%"class.std::basic_ostream" = type { i32 (...)**, %"class.std::basic_ios" }
%"class.std::basic_streambuf" = type { i32 (...)**, i8*, i8*, i8*, i8*, i8*, i8*, %"class.std::locale" }
%"class.std::ctype" = type <{ %"class.std::locale::facet.base", [4 x i8], %struct.__locale_struct*, i8, [7 x i8], i32*, i32*, i16*, i8, [256 x i8], [256 x i8], i8, [6 x i8] }>
%"class.std::locale::facet.base" = type <{ i32 (...)**, i32 }>
%struct.__locale_struct = type { [13 x %struct.__locale_data*], i16*, i32*, i32*, [13 x i8*] }
%struct.__locale_data = type opaque
%"class.std::num_put" = type { %"class.std::locale::facet.base", [4 x i8] }
%"class.std::num_get" = type { %"class.std::locale::facet.base", [4 x i8] }

@_ZStL8__ioinit = internal global %"class.std::ios_base::Init" zeroinitializer, align 1
@__dso_handle = external hidden global i8
@_ZSt3cin = external global %"class.std::basic_istream", align 8
@_ZSt4cout = external global %"class.std::basic_ostream", align 8
@.str = private unnamed_addr constant [2 x i8] c"1\00", align 1
@llvm.global_ctors = appending global [1 x { i32, void ()*, i8* }] [{ i32, void ()*, i8* } { i32 65535, void ()* @_GLOBAL__sub_I_996.cpp, i8* null }]

declare void @_ZNSt8ios_base4InitC1Ev(%"class.std::ios_base::Init"* nonnull align 1 dereferenceable(1)) unnamed_addr #0

; Function Attrs: nounwind
declare void @_ZNSt8ios_base4InitD1Ev(%"class.std::ios_base::Init"* nonnull align 1 dereferenceable(1)) unnamed_addr #1

; Function Attrs: nofree nounwind
declare i32 @__cxa_atexit(void (i8*)*, i8*, i8*) local_unnamed_addr #2

; Function Attrs: mustprogress norecurse sspstrong uwtable
define dso_local i32 @main() local_unnamed_addr #3 {
  %1 = alloca [10000 x i32], align 16
  %2 = alloca i32, align 4
  %3 = bitcast [10000 x i32]* %1 to i8*
  call void @llvm.lifetime.start.p0i8(i64 40000, i8* nonnull %3) #7
  call void @llvm.memset.p0i8.i64(i8* noundef nonnull align 16 dereferenceable(40000) %3, i8 0, i64 40000, i1 false)
  %4 = getelementptr inbounds [10000 x i32], [10000 x i32]* %1, i64 0, i64 0
  store i32 2, i32* %4, align 16
  %5 = bitcast i32* %2 to i8*
  call void @llvm.lifetime.start.p0i8(i64 4, i8* nonnull %5) #7
  store i32 0, i32* %2, align 4, !tbaa !5
  %6 = call nonnull align 8 dereferenceable(16) %"class.std::basic_istream"* @_ZNSirsERi(%"class.std::basic_istream"* nonnull align 8 dereferenceable(16) @_ZSt3cin, i32* nonnull align 4 dereferenceable(4) %2)
  %7 = load i32, i32* %2, align 4, !tbaa !5
  %8 = icmp eq i32 %7, 0
  br i1 %8, label %12, label %9

9:                                                ; preds = %0
  %10 = icmp sgt i32 %7, 1
  br i1 %10, label %14, label %11

11:                                               ; preds = %17, %9
  br label %42

12:                                               ; preds = %0
  %13 = call nonnull align 8 dereferenceable(8) %"class.std::basic_ostream"* @_ZSt16__ostream_insertIcSt11char_traitsIcEERSt13basic_ostreamIT_T0_ES6_PKS3_l(%"class.std::basic_ostream"* nonnull align 8 dereferenceable(8) @_ZSt4cout, i8* nonnull getelementptr inbounds ([2 x i8], [2 x i8]* @.str, i64 0, i64 0), i64 1)
  br label %64

14:                                               ; preds = %9, %17
  %15 = phi i32 [ %18, %17 ], [ 1, %9 ]
  %16 = phi i32 [ %39, %17 ], [ 0, %9 ]
  br label %20

17:                                               ; preds = %20
  %18 = add nuw nsw i32 %15, 1
  %19 = icmp eq i32 %18, %7
  br i1 %19, label %11, label %14, !llvm.loop !9

20:                                               ; preds = %20, %14
  %21 = phi i64 [ 1, %14 ], [ %40, %20 ]
  %22 = phi i32 [ %16, %14 ], [ %39, %20 ]
  %23 = add nsw i64 %21, -1
  %24 = getelementptr inbounds [10000 x i32], [10000 x i32]* %1, i64 0, i64 %23
  %25 = load i32, i32* %24, align 4, !tbaa !5
  %26 = shl nsw i32 %25, 1
  %27 = add nsw i32 %26, %22
  %28 = icmp sgt i32 %27, 9
  %29 = add nsw i32 %27, -10
  %30 = select i1 %28, i32 %29, i32 %27
  %31 = zext i1 %28 to i32
  store i32 %30, i32* %24, align 4, !tbaa !5
  %32 = getelementptr inbounds [10000 x i32], [10000 x i32]* %1, i64 0, i64 %21
  %33 = load i32, i32* %32, align 4, !tbaa !5
  %34 = shl nsw i32 %33, 1
  %35 = or i32 %34, %31
  %36 = icmp sgt i32 %35, 9
  %37 = add nsw i32 %35, -10
  %38 = select i1 %36, i32 %37, i32 %35
  %39 = zext i1 %36 to i32
  store i32 %38, i32* %32, align 4, !tbaa !5
  %40 = add nuw nsw i64 %21, 2
  %41 = icmp eq i64 %40, 10001
  br i1 %41, label %17, label %20, !llvm.loop !11

42:                                               ; preds = %77, %11
  %43 = phi i64 [ 10000, %11 ], [ %78, %77 ]
  %44 = icmp eq i64 %43, 0
  br i1 %44, label %64, label %45

45:                                               ; preds = %42
  %46 = add nsw i64 %43, -1
  %47 = and i64 %46, 4294967295
  %48 = getelementptr inbounds [10000 x i32], [10000 x i32]* %1, i64 0, i64 %47
  %49 = load i32, i32* %48, align 4, !tbaa !5
  %50 = icmp eq i32 %49, 0
  br i1 %50, label %65, label %51, !llvm.loop !12

51:                                               ; preds = %77, %71, %65, %45
  %52 = phi i64 [ %43, %45 ], [ %46, %65 ], [ %66, %71 ], [ %72, %77 ]
  %53 = trunc i64 %52 to i32
  %54 = icmp sgt i32 %53, 0
  br i1 %54, label %55, label %64

55:                                               ; preds = %51
  %56 = and i64 %52, 4294967295
  br label %57

57:                                               ; preds = %55, %57
  %58 = phi i64 [ %56, %55 ], [ %59, %57 ]
  %59 = add nsw i64 %58, -1
  %60 = getelementptr inbounds [10000 x i32], [10000 x i32]* %1, i64 0, i64 %59
  %61 = load i32, i32* %60, align 4, !tbaa !5
  %62 = call nonnull align 8 dereferenceable(8) %"class.std::basic_ostream"* @_ZNSolsEi(%"class.std::basic_ostream"* nonnull align 8 dereferenceable(8) @_ZSt4cout, i32 %61)
  %63 = icmp sgt i64 %58, 1
  br i1 %63, label %57, label %64, !llvm.loop !13

64:                                               ; preds = %42, %57, %51, %12
  call void @llvm.lifetime.end.p0i8(i64 4, i8* nonnull %5) #7
  call void @llvm.lifetime.end.p0i8(i64 40000, i8* nonnull %3) #7
  ret i32 0

65:                                               ; preds = %45
  %66 = add nsw i64 %43, -2
  %67 = and i64 %66, 4294967294
  %68 = getelementptr inbounds [10000 x i32], [10000 x i32]* %1, i64 0, i64 %67
  %69 = load i32, i32* %68, align 8, !tbaa !5
  %70 = icmp eq i32 %69, 0
  br i1 %70, label %71, label %51, !llvm.loop !12

71:                                               ; preds = %65
  %72 = add nsw i64 %43, -3
  %73 = and i64 %72, 4294967293
  %74 = getelementptr inbounds [10000 x i32], [10000 x i32]* %1, i64 0, i64 %73
  %75 = load i32, i32* %74, align 4, !tbaa !5
  %76 = icmp eq i32 %75, 0
  br i1 %76, label %77, label %51, !llvm.loop !12

77:                                               ; preds = %71
  %78 = add nsw i64 %43, -4
  %79 = and i64 %78, 4294967292
  %80 = getelementptr inbounds [10000 x i32], [10000 x i32]* %1, i64 0, i64 %79
  %81 = load i32, i32* %80, align 16, !tbaa !5
  %82 = icmp eq i32 %81, 0
  br i1 %82, label %42, label %51, !llvm.loop !12
}

; Function Attrs: argmemonly mustprogress nofree nosync nounwind willreturn
declare void @llvm.lifetime.start.p0i8(i64 immarg, i8* nocapture) #4

; Function Attrs: argmemonly mustprogress nofree nounwind willreturn writeonly
declare void @llvm.memset.p0i8.i64(i8* nocapture writeonly, i8, i64, i1 immarg) #5

declare nonnull align 8 dereferenceable(16) %"class.std::basic_istream"* @_ZNSirsERi(%"class.std::basic_istream"* nonnull align 8 dereferenceable(16), i32* nonnull align 4 dereferenceable(4)) local_unnamed_addr #0

; Function Attrs: argmemonly mustprogress nofree nosync nounwind willreturn
declare void @llvm.lifetime.end.p0i8(i64 immarg, i8* nocapture) #4

declare nonnull align 8 dereferenceable(8) %"class.std::basic_ostream"* @_ZNSolsEi(%"class.std::basic_ostream"* nonnull align 8 dereferenceable(8), i32) local_unnamed_addr #0

declare nonnull align 8 dereferenceable(8) %"class.std::basic_ostream"* @_ZSt16__ostream_insertIcSt11char_traitsIcEERSt13basic_ostreamIT_T0_ES6_PKS3_l(%"class.std::basic_ostream"* nonnull align 8 dereferenceable(8), i8*, i64) local_unnamed_addr #0

; Function Attrs: sspstrong uwtable
define internal void @_GLOBAL__sub_I_996.cpp() #6 section ".text.startup" {
  tail call void @_ZNSt8ios_base4InitC1Ev(%"class.std::ios_base::Init"* nonnull align 1 dereferenceable(1) @_ZStL8__ioinit)
  %1 = tail call i32 @__cxa_atexit(void (i8*)* bitcast (void (%"class.std::ios_base::Init"*)* @_ZNSt8ios_base4InitD1Ev to void (i8*)*), i8* getelementptr inbounds (%"class.std::ios_base::Init", %"class.std::ios_base::Init"* @_ZStL8__ioinit, i64 0, i32 0), i8* nonnull @__dso_handle) #7
  ret void
}


!llvm.module.flags = !{!0, !1, !2, !3}
!llvm.ident = !{!4}

!0 = !{i32 1, !"wchar_size", i32 4}
!1 = !{i32 7, !"PIC Level", i32 2}
!2 = !{i32 7, !"PIE Level", i32 2}
!3 = !{i32 7, !"uwtable", i32 1}
!4 = !{!"clang version 13.0.0"}
!5 = !{!6, !6, i64 0}
!6 = !{!"int", !7, i64 0}
!7 = !{!"omnipotent char", !8, i64 0}
!8 = !{!"Simple C++ TBAA"}
!9 = distinct !{!9, !10}
!10 = !{!"llvm.loop.mustprogress"}
!11 = distinct !{!11, !10}
!12 = distinct !{!12, !10}
!13 = distinct !{!13, !10}
